; Function Attrs: nounwind uwtable
define noalias noundef nonnull ptr @l_Lean_Elab_Info_fmtHover_x3f___lambda__2(ptr noundef %0, ptr noundef %1, ptr noundef %2, ptr noundef readnone captures(none) %3, ptr noundef readnone captures(none) %4, ptr noundef readnone captures(none) %5, ptr noundef readnone captures(none) %6, ptr noundef readnone captures(none) %7, ptr noundef %8) local_unnamed_addr #0 {
  %10 = ptrtoint ptr %1 to i64
  %11 = and i64 %10, 1
  %.not.i25 = icmp eq i64 %11, 0
  br i1 %.not.i25, label %15, label %12

12:                                               ; preds = %9
  %13 = lshr i64 %10, 1
  %14 = trunc i64 %13 to i32
  br label %lean_obj_tag.exit

15:                                               ; preds = %9
  %16 = getelementptr i8, ptr %1, i64 4
  %.val.i = load i32, ptr %16, align 4
  %17 = lshr i32 %.val.i, 24
  br label %lean_obj_tag.exit

lean_obj_tag.exit:                                ; preds = %12, %15
  %.0.i = phi i32 [ %14, %12 ], [ %17, %15 ]
  %18 = icmp eq i32 %.0.i, 0
  br i1 %18, label %38, label %19

19:                                               ; preds = %lean_obj_tag.exit
  %20 = getelementptr inbounds nuw i8, ptr %1, i64 8
  %21 = load ptr, ptr %20, align 8, !tbaa !9
  %22 = ptrtoint ptr %21 to i64
  %23 = and i64 %22, 1
  %.not = icmp eq i64 %23, 0
  br i1 %.not, label %24, label %lean_inc.exit

24:                                               ; preds = %19
  %.val.i26 = load i32, ptr %21, align 4, !tbaa !4
  %25 = icmp sgt i32 %.val.i26, 0
  br i1 %25, label %26, label %28, !prof !15

26:                                               ; preds = %24
  %27 = add nuw i32 %.val.i26, 1
  store i32 %27, ptr %21, align 4, !tbaa !4
  br label %lean_inc.exit

28:                                               ; preds = %24
  %.not.i27 = icmp eq i32 %.val.i26, 0
  br i1 %.not.i27, label %lean_inc.exit, label %29

29:                                               ; preds = %28
  tail call void @lean_inc_ref_cold(ptr noundef nonnull %21) #7
  br label %lean_inc.exit

lean_inc.exit:                                    ; preds = %29, %28, %26, %19
  br i1 %.not.i25, label %30, label %lean_dec.exit

30:                                               ; preds = %lean_inc.exit
  %31 = load i32, ptr %1, align 4, !tbaa !4
  %32 = icmp sgt i32 %31, 1
  br i1 %32, label %33, label %35, !prof !15

33:                                               ; preds = %30
  %34 = add nsw i32 %31, -1
  store i32 %34, ptr %1, align 4, !tbaa !4
  br label %lean_dec.exit

35:                                               ; preds = %30
  %.not.i = icmp eq i32 %31, 0
  br i1 %.not.i, label %lean_dec.exit, label %36

36:                                               ; preds = %35
  tail call void @lean_dec_ref_cold(ptr noundef nonnull %1) #7
  br label %lean_dec.exit

lean_dec.exit:                                    ; preds = %36, %35, %33, %lean_inc.exit
  %37 = tail call ptr @lean_array_push(ptr noundef %2, ptr noundef %21) #7
  br label %38

38:                                               ; preds = %lean_obj_tag.exit, %lean_dec.exit
  %.sink = phi ptr [ %37, %lean_dec.exit ], [ %2, %lean_obj_tag.exit ]
  %39 = tail call ptr @l_Lean_Elab_Info_fmtHover_x3f___lambda__1(ptr noundef %0, ptr noundef %.sink, ptr nonnull poison, ptr poison, ptr poison, ptr poison, ptr poison, ptr noundef %8)
  ret ptr %39
}